; Function Attrs: inlinehint mustprogress nounwind uwtable
define internal fastcc void @_ZN2cv12_GLOBAL__N_18GSafePtrI8_GstCapsE7releaseEv(ptr noundef nonnull align 8 captures(none) dereferenceable(8) %0) unnamed_addr #5 align 2 personality ptr @__gxx_personality_v0 {
  %2 = load ptr, ptr %0, align 8, !tbaa !58
  %.not = icmp eq ptr %2, null
  br i1 %.not, label %4, label %3

3:                                                ; preds = %1
  invoke void @gst_mini_object_unref(ptr noundef nonnull %2)
          to label %_ZN2cv12_GLOBAL__N_116GSafePtr_releaseI8_GstCapsEEvPPT_.exit unwind label %5

_ZN2cv12_GLOBAL__N_116GSafePtr_releaseI8_GstCapsEEvPPT_.exit: ; preds = %3
  store ptr null, ptr %0, align 8, !tbaa !59
  br label %4

4:                                                ; preds = %_ZN2cv12_GLOBAL__N_116GSafePtr_releaseI8_GstCapsEEvPPT_.exit, %1
  ret void

5:                                                ; preds = %3
  %6 = landingpad { ptr, i32 }
          catch ptr null
  %7 = extractvalue { ptr, i32 } %6, 0
  tail call void @__clang_call_terminate(ptr %7) #32
  unreachable
}